target datalayout = "e-m:e-p270:32:32-p271:32:32-p272:64:64-i64:64-i128:128-f80:128-n8:16:32:64-S128"
target triple = "x86_64-pc-linux-gnu"

%struct.VC2TransformContext = type { ptr, i32, [7 x ptr] }

; Function Attrs: cold nounwind optsize uwtable
define void @ff_vc2enc_free_transforms(ptr noundef %0) #0 {
  %2 = alloca ptr, align 8
  store ptr %0, ptr %2, align 8, !tbaa !4
  %3 = load ptr, ptr %2, align 8, !tbaa !4
  %4 = getelementptr inbounds nuw %struct.VC2TransformContext, ptr %3, i32 0, i32 0
  %5 = load ptr, ptr %4, align 8, !tbaa !12
  %6 = icmp ne ptr %5, null
  br i1 %6, label %7, label %19

7:                                                ; preds = %1
  %8 = load ptr, ptr %2, align 8, !tbaa !4
  %9 = getelementptr inbounds nuw %struct.VC2TransformContext, ptr %8, i32 0, i32 0
  %10 = load ptr, ptr %9, align 8, !tbaa !12
  %11 = load ptr, ptr %2, align 8, !tbaa !4
  %12 = getelementptr inbounds nuw %struct.VC2TransformContext, ptr %11, i32 0, i32 1
  %13 = load i32, ptr %12, align 8, !tbaa !15
  %14 = sext i32 %13 to i64
  %15 = sub i64 0, %14
  %16 = getelementptr inbounds i32, ptr %10, i64 %15
  call void @av_free(ptr noundef %16)
  %17 = load ptr, ptr %2, align 8, !tbaa !4
  %18 = getelementptr inbounds nuw %struct.VC2TransformContext, ptr %17, i32 0, i32 0
  store ptr null, ptr %18, align 8, !tbaa !12
  br label %19

19:                                               ; preds = %7, %1
  ret void
}