; Function Attrs: cold nounwind optsize uwtable
define void @ff_vc2enc_free_transforms(ptr noundef captures(none) %0) local_unnamed_addr #0 {
  %2 = load ptr, ptr %0, align 8, !tbaa !8
  %.not = icmp eq ptr %2, null
  br i1 %.not, label %9, label %3

3:                                                ; preds = %1
  %4 = getelementptr inbounds nuw i8, ptr %0, i64 8
  %5 = load i32, ptr %4, align 8, !tbaa !12
  %6 = sext i32 %5 to i64
  %7 = sub nsw i64 0, %6
  %8 = getelementptr inbounds i32, ptr %2, i64 %7
  tail call void @av_free(ptr noundef nonnull %8) #3
  store ptr null, ptr %0, align 8, !tbaa !8
  br label %9

9:                                                ; preds = %3, %1
  ret void
}